ARM GAS  C:\Users\shahnaz\AppData\Local\Temp\ccyHMBzP.s 			page 1


   1              		.syntax unified
   2              		.cpu cortex-m0
   3              		.fpu softvfp
   4              		.eabi_attribute 20, 1
   5              		.eabi_attribute 21, 1
   6              		.eabi_attribute 23, 3
   7              		.eabi_attribute 24, 1
   8              		.eabi_attribute 25, 1
   9              		.eabi_attribute 26, 1
  10              		.eabi_attribute 30, 1
  11              		.eabi_attribute 34, 0
  12              		.eabi_attribute 18, 4
  13              		.thumb
  14              		.syntax unified
  15              		.file	"libraryCopied.c"
  16              		.text
  17              	.Ltext0:
  18              		.cfi_sections	.debug_frame
  19              		.section	.text.OxygenSensor_Begin,"ax",%progbits
  20              		.align	2
  21              		.global	OxygenSensor_Begin
  22              		.code	16
  23              		.thumb_func
  24              		.type	OxygenSensor_Begin, %function
  25              	OxygenSensor_Begin:
  26              	.LFB35:
  27              		.file 1 "libraryCopied.c"
   1:libraryCopied.c **** #include <project.h>
   2:libraryCopied.c **** #include <stdio.h>
   3:libraryCopied.c **** #include <string.h>
   4:libraryCopied.c **** #include "libraryCopied.h"
   5:libraryCopied.c **** #include "cyapicallbacks.h"
   6:libraryCopied.c **** 
   7:libraryCopied.c **** #define GET_KEY_REGISTER       0x0A  // Define appropriate register values
   8:libraryCopied.c **** #define USER_SET_REGISTER      0x08
   9:libraryCopied.c **** #define AUTUAL_SET_REGISTER    0x09
  10:libraryCopied.c **** #define OXYGEN_DATA_REGISTER   0x03
  11:libraryCopied.c **** 
  12:libraryCopied.c **** #define COLLECT_MAX            10    // Maximum number of data points for averaging
  13:libraryCopied.c **** 
  14:libraryCopied.c **** /**
  15:libraryCopied.c ****  * Initialize the oxygen sensor by checking the I2C connection.
  16:libraryCopied.c ****  */
  17:libraryCopied.c **** bool OxygenSensor_Begin(DFRobot_OxygenSensor* sensor, uint8_t addr) {
  28              		.loc 1 17 0
  29              		.cfi_startproc
  30              		@ args = 0, pretend = 0, frame = 56
  31              		@ frame_needed = 0, uses_anonymous_args = 0
  32              	.LVL0:
  33 0000 10B5     		push	{r4, lr}
  34              		.cfi_def_cfa_offset 8
  35              		.cfi_offset 4, -8
  36              		.cfi_offset 14, -4
  37 0002 8EB0     		sub	sp, sp, #56
  38              		.cfi_def_cfa_offset 64
  39 0004 0C00     		movs	r4, r1
  40              	.LVL1:
ARM GAS  C:\Users\shahnaz\AppData\Local\Temp\ccyHMBzP.s 			page 2


  18:libraryCopied.c ****     uint8_t status = 0;
  19:libraryCopied.c ****     sensor->_addr = addr;
  41              		.loc 1 19 0
  42 0006 0170     		strb	r1, [r0]
  20:libraryCopied.c ****     
  21:libraryCopied.c ****     I2C_I2CMasterClearStatus();
  43              		.loc 1 21 0
  44 0008 FFF7FEFF 		bl	I2C_I2CMasterClearStatus
  45              	.LVL2:
  22:libraryCopied.c ****     // Check the I2C connection
  23:libraryCopied.c ****     status = I2C_I2CMasterSendStart(addr, I2C_I2C_WRITE_XFER_MODE, TIMEOUT);
  46              		.loc 1 23 0
  47 000c 1422     		movs	r2, #20
  48 000e 0021     		movs	r1, #0
  49 0010 2000     		movs	r0, r4
  50 0012 FFF7FEFF 		bl	I2C_I2CMasterSendStart
  51              	.LVL3:
  52 0016 C4B2     		uxtb	r4, r0
  53              	.LVL4:
  24:libraryCopied.c ****     if (status) {
  54              		.loc 1 24 0
  55 0018 002C     		cmp	r4, #0
  56 001a 0FD0     		beq	.L2
  57              	.LBB2:
  25:libraryCopied.c ****         char debugMsg[50];
  26:libraryCopied.c ****         sprintf(debugMsg, "Oxygen Begin: I2C Send Start Error Code: 0x%08X\r\n", status);
  58              		.loc 1 26 0
  59 001c FF22     		movs	r2, #255
  60 001e 0240     		ands	r2, r0
  61 0020 0A49     		ldr	r1, .L4
  62 0022 01A8     		add	r0, sp, #4
  63 0024 FFF7FEFF 		bl	sprintf
  64              	.LVL5:
  27:libraryCopied.c ****         UART_UartPutString(debugMsg);
  65              		.loc 1 27 0
  66 0028 01A8     		add	r0, sp, #4
  67 002a FFF7FEFF 		bl	UART_UartPutString
  68              	.LVL6:
  28:libraryCopied.c ****         I2C_I2CMasterSendStop(TIMEOUT);
  69              		.loc 1 28 0
  70 002e 1420     		movs	r0, #20
  71 0030 FFF7FEFF 		bl	I2C_I2CMasterSendStop
  72              	.LVL7:
  29:libraryCopied.c ****         return status;
  73              		.loc 1 29 0
  74 0034 601E     		subs	r0, r4, #1
  75 0036 8441     		sbcs	r4, r4, r0
  76              	.LVL8:
  77 0038 E0B2     		uxtb	r0, r4
  78 003a 05E0     		b	.L3
  79              	.LVL9:
  80              	.L2:
  81              	.LBE2:
  30:libraryCopied.c ****     }
  31:libraryCopied.c ****     
  32:libraryCopied.c ****     I2C_I2CMasterSendStop(TIMEOUT);
  82              		.loc 1 32 0
ARM GAS  C:\Users\shahnaz\AppData\Local\Temp\ccyHMBzP.s 			page 3


  83 003c 1420     		movs	r0, #20
  84 003e FFF7FEFF 		bl	I2C_I2CMasterSendStop
  85              	.LVL10:
  33:libraryCopied.c **** 
  34:libraryCopied.c ****     return (status == I2C_I2C_MSTR_NO_ERROR);
  86              		.loc 1 34 0
  87 0042 6042     		rsbs	r0, r4, #0
  88 0044 6041     		adcs	r0, r0, r4
  89              	.LVL11:
  90 0046 C0B2     		uxtb	r0, r0
  91              	.L3:
  35:libraryCopied.c **** }
  92              		.loc 1 35 0 discriminator 1
  93 0048 0EB0     		add	sp, sp, #56
  94              		@ sp needed
  95 004a 10BD     		pop	{r4, pc}
  96              	.L5:
  97              		.align	2
  98              	.L4:
  99 004c 00000000 		.word	.LC0
 100              		.cfi_endproc
 101              	.LFE35:
 102              		.size	OxygenSensor_Begin, .-OxygenSensor_Begin
 103              		.global	__aeabi_i2d
 104              		.global	__aeabi_ddiv
 105              		.global	__aeabi_d2f
 106              		.section	.text.OxygenSensor_ReadFlash,"ax",%progbits
 107              		.align	2
 108              		.global	OxygenSensor_ReadFlash
 109              		.code	16
 110              		.thumb_func
 111              		.type	OxygenSensor_ReadFlash, %function
 112              	OxygenSensor_ReadFlash:
 113              	.LFB36:
  36:libraryCopied.c **** 
  37:libraryCopied.c **** /**
  38:libraryCopied.c ****  * Read the calibration key from the sensor's memory.
  39:libraryCopied.c ****  */
  40:libraryCopied.c **** void OxygenSensor_ReadFlash(DFRobot_OxygenSensor* sensor) {
 114              		.loc 1 40 0
 115              		.cfi_startproc
 116              		@ args = 0, pretend = 0, frame = 56
 117              		@ frame_needed = 0, uses_anonymous_args = 0
 118              	.LVL12:
 119 0000 30B5     		push	{r4, r5, lr}
 120              		.cfi_def_cfa_offset 12
 121              		.cfi_offset 4, -12
 122              		.cfi_offset 5, -8
 123              		.cfi_offset 14, -4
 124 0002 8FB0     		sub	sp, sp, #60
 125              		.cfi_def_cfa_offset 72
 126 0004 0400     		movs	r4, r0
  41:libraryCopied.c ****     uint8 value = 0;
 127              		.loc 1 41 0
 128 0006 0022     		movs	r2, #0
 129 0008 3723     		movs	r3, #55
 130 000a 6B44     		add	r3, r3, sp
ARM GAS  C:\Users\shahnaz\AppData\Local\Temp\ccyHMBzP.s 			page 4


 131 000c 1A70     		strb	r2, [r3]
 132              	.LVL13:
  42:libraryCopied.c ****     uint8_t err = 0;
  43:libraryCopied.c ****     I2C_I2CMasterClearStatus();
 133              		.loc 1 43 0
 134 000e FFF7FEFF 		bl	I2C_I2CMasterClearStatus
 135              	.LVL14:
  44:libraryCopied.c **** 
  45:libraryCopied.c ****     // Send GET_KEY_REGISTER command
  46:libraryCopied.c ****     err = I2C_I2CMasterSendStart(sensor->_addr, I2C_I2C_WRITE_XFER_MODE, TIMEOUT);
 136              		.loc 1 46 0
 137 0012 2078     		ldrb	r0, [r4]
 138 0014 1422     		movs	r2, #20
 139 0016 0021     		movs	r1, #0
 140 0018 FFF7FEFF 		bl	I2C_I2CMasterSendStart
 141              	.LVL15:
 142 001c C3B2     		uxtb	r3, r0
 143              	.LVL16:
  47:libraryCopied.c ****     
  48:libraryCopied.c ****     if (err) {
 144              		.loc 1 48 0
 145 001e 002B     		cmp	r3, #0
 146 0020 0CD0     		beq	.L7
 147              	.LBB3:
  49:libraryCopied.c ****         char debugMsg[50];
  50:libraryCopied.c ****         sprintf(debugMsg, "Oxygen Flash: I2C Send Start Error Code: 0x%08X\r\n", err);
 148              		.loc 1 50 0
 149 0022 FF22     		movs	r2, #255
 150 0024 0240     		ands	r2, r0
 151 0026 1F49     		ldr	r1, .L13
 152 0028 01A8     		add	r0, sp, #4
 153 002a FFF7FEFF 		bl	sprintf
 154              	.LVL17:
  51:libraryCopied.c ****         UART_UartPutString(debugMsg);
 155              		.loc 1 51 0
 156 002e 01A8     		add	r0, sp, #4
 157 0030 FFF7FEFF 		bl	UART_UartPutString
 158              	.LVL18:
  52:libraryCopied.c ****         I2C_I2CMasterSendStop(TIMEOUT);
 159              		.loc 1 52 0
 160 0034 1420     		movs	r0, #20
 161 0036 FFF7FEFF 		bl	I2C_I2CMasterSendStop
 162              	.LVL19:
 163 003a 31E0     		b	.L6
 164              	.LVL20:
 165              	.L7:
 166              	.LBE3:
  53:libraryCopied.c ****         return;
  54:libraryCopied.c ****     }
  55:libraryCopied.c ****     
  56:libraryCopied.c ****     I2C_I2CMasterWriteByte(GET_KEY_REGISTER, TIMEOUT);
 167              		.loc 1 56 0
 168 003c 1421     		movs	r1, #20
 169 003e 0A20     		movs	r0, #10
 170 0040 FFF7FEFF 		bl	I2C_I2CMasterWriteByte
 171              	.LVL21:
  57:libraryCopied.c ****     
ARM GAS  C:\Users\shahnaz\AppData\Local\Temp\ccyHMBzP.s 			page 5


  58:libraryCopied.c ****     err = I2C_I2CMasterSendRestart(sensor->_addr, I2C_I2C_READ_XFER_MODE, TIMEOUT);
 172              		.loc 1 58 0
 173 0044 2078     		ldrb	r0, [r4]
 174 0046 1422     		movs	r2, #20
 175 0048 0121     		movs	r1, #1
 176 004a FFF7FEFF 		bl	I2C_I2CMasterSendRestart
 177              	.LVL22:
 178 004e C3B2     		uxtb	r3, r0
 179              	.LVL23:
  59:libraryCopied.c ****     if (err) {
 180              		.loc 1 59 0
 181 0050 002B     		cmp	r3, #0
 182 0052 0CD0     		beq	.L9
 183              	.LBB4:
  60:libraryCopied.c ****         char debugMsg[50];
  61:libraryCopied.c ****         sprintf(debugMsg, "Oxygen Flash: I2C Send Restart Error Code: 0x%08X\r\n", err);
 184              		.loc 1 61 0
 185 0054 FF22     		movs	r2, #255
 186 0056 0240     		ands	r2, r0
 187 0058 1349     		ldr	r1, .L13+4
 188 005a 01A8     		add	r0, sp, #4
 189 005c FFF7FEFF 		bl	sprintf
 190              	.LVL24:
  62:libraryCopied.c ****         UART_UartPutString(debugMsg);
 191              		.loc 1 62 0
 192 0060 01A8     		add	r0, sp, #4
 193 0062 FFF7FEFF 		bl	UART_UartPutString
 194              	.LVL25:
  63:libraryCopied.c ****         I2C_I2CMasterSendStop(TIMEOUT);
 195              		.loc 1 63 0
 196 0066 1420     		movs	r0, #20
 197 0068 FFF7FEFF 		bl	I2C_I2CMasterSendStop
 198              	.LVL26:
 199 006c 18E0     		b	.L6
 200              	.LVL27:
 201              	.L9:
 202              	.LBE4:
  64:libraryCopied.c ****         return;
  65:libraryCopied.c ****     }
  66:libraryCopied.c ****     
  67:libraryCopied.c ****     I2C_I2CMasterReadByte(I2C_I2C_NAK_DATA, &value, TIMEOUT);
 203              		.loc 1 67 0
 204 006e 3725     		movs	r5, #55
 205 0070 6D44     		add	r5, r5, sp
 206 0072 1422     		movs	r2, #20
 207 0074 2900     		movs	r1, r5
 208 0076 0120     		movs	r0, #1
 209 0078 FFF7FEFF 		bl	I2C_I2CMasterReadByte
 210              	.LVL28:
  68:libraryCopied.c ****     I2C_I2CMasterSendStop(TIMEOUT);
 211              		.loc 1 68 0
 212 007c 1420     		movs	r0, #20
 213 007e FFF7FEFF 		bl	I2C_I2CMasterSendStop
 214              	.LVL29:
  69:libraryCopied.c **** 
  70:libraryCopied.c ****     if (value == 0) {
 215              		.loc 1 70 0
ARM GAS  C:\Users\shahnaz\AppData\Local\Temp\ccyHMBzP.s 			page 6


 216 0082 2878     		ldrb	r0, [r5]
 217 0084 0028     		cmp	r0, #0
 218 0086 02D1     		bne	.L10
  71:libraryCopied.c ****         sensor->_Key =  20.9 / 120.0;
 219              		.loc 1 71 0
 220 0088 084B     		ldr	r3, .L13+8
 221 008a 6360     		str	r3, [r4, #4]
 222 008c 08E0     		b	.L6
 223              	.L10:
  72:libraryCopied.c ****     } else {
  73:libraryCopied.c ****         sensor->_Key = value / 1000.0;
 224              		.loc 1 73 0
 225 008e FFF7FEFF 		bl	__aeabi_i2d
 226              	.LVL30:
 227 0092 0022     		movs	r2, #0
 228 0094 064B     		ldr	r3, .L13+12
 229 0096 FFF7FEFF 		bl	__aeabi_ddiv
 230              	.LVL31:
 231 009a FFF7FEFF 		bl	__aeabi_d2f
 232              	.LVL32:
 233 009e 6060     		str	r0, [r4, #4]
 234              	.L6:
  74:libraryCopied.c ****     }
  75:libraryCopied.c ****     
  76:libraryCopied.c **** }
 235              		.loc 1 76 0
 236 00a0 0FB0     		add	sp, sp, #60
 237              		@ sp needed
 238              	.LVL33:
 239 00a2 30BD     		pop	{r4, r5, pc}
 240              	.L14:
 241              		.align	2
 242              	.L13:
 243 00a4 34000000 		.word	.LC2
 244 00a8 68000000 		.word	.LC4
 245 00ac BF58323E 		.word	1043486911
 246 00b0 00408F40 		.word	1083129856
 247              		.cfi_endproc
 248              	.LFE36:
 249              		.size	OxygenSensor_ReadFlash, .-OxygenSensor_ReadFlash
 250              		.section	.text.OxygenSensor_I2CWrite,"ax",%progbits
 251              		.align	2
 252              		.global	OxygenSensor_I2CWrite
 253              		.code	16
 254              		.thumb_func
 255              		.type	OxygenSensor_I2CWrite, %function
 256              	OxygenSensor_I2CWrite:
 257              	.LFB37:
  77:libraryCopied.c **** 
  78:libraryCopied.c **** /**
  79:libraryCopied.c ****  * Write a value to a specific register on the sensor.
  80:libraryCopied.c ****  */
  81:libraryCopied.c **** void OxygenSensor_I2CWrite(DFRobot_OxygenSensor* sensor, uint8_t reg, uint8_t data) {
 258              		.loc 1 81 0
 259              		.cfi_startproc
 260              		@ args = 0, pretend = 0, frame = 0
 261              		@ frame_needed = 0, uses_anonymous_args = 0
ARM GAS  C:\Users\shahnaz\AppData\Local\Temp\ccyHMBzP.s 			page 7


 262              	.LVL34:
 263 0000 70B5     		push	{r4, r5, r6, lr}
 264              		.cfi_def_cfa_offset 16
 265              		.cfi_offset 4, -16
 266              		.cfi_offset 5, -12
 267              		.cfi_offset 6, -8
 268              		.cfi_offset 14, -4
 269 0002 0600     		movs	r6, r0
 270 0004 0D00     		movs	r5, r1
 271 0006 1400     		movs	r4, r2
 272              	.LVL35:
  82:libraryCopied.c ****     uint8_t err = 0;
  83:libraryCopied.c ****     I2C_I2CMasterClearStatus();
 273              		.loc 1 83 0
 274 0008 FFF7FEFF 		bl	I2C_I2CMasterClearStatus
 275              	.LVL36:
  84:libraryCopied.c ****     err = I2C_I2CMasterSendStart(sensor->_addr, I2C_I2C_WRITE_XFER_MODE, TIMEOUT);
 276              		.loc 1 84 0
 277 000c 3078     		ldrb	r0, [r6]
 278 000e 1422     		movs	r2, #20
 279 0010 0021     		movs	r1, #0
 280 0012 FFF7FEFF 		bl	I2C_I2CMasterSendStart
 281              	.LVL37:
 282 0016 C0B2     		uxtb	r0, r0
 283              	.LVL38:
  85:libraryCopied.c ****     if (err) {
 284              		.loc 1 85 0
 285 0018 0028     		cmp	r0, #0
 286 001a 03D0     		beq	.L16
  86:libraryCopied.c ****         I2C_I2CMasterSendStop(TIMEOUT);
 287              		.loc 1 86 0
 288 001c 1420     		movs	r0, #20
 289              	.LVL39:
 290 001e FFF7FEFF 		bl	I2C_I2CMasterSendStop
 291              	.LVL40:
  87:libraryCopied.c ****         return;
 292              		.loc 1 87 0
 293 0022 0AE0     		b	.L15
 294              	.LVL41:
 295              	.L16:
  88:libraryCopied.c ****     }
  89:libraryCopied.c ****     I2C_I2CMasterWriteByte(reg, TIMEOUT);
 296              		.loc 1 89 0
 297 0024 1421     		movs	r1, #20
 298 0026 2800     		movs	r0, r5
 299              	.LVL42:
 300 0028 FFF7FEFF 		bl	I2C_I2CMasterWriteByte
 301              	.LVL43:
  90:libraryCopied.c ****     I2C_I2CMasterWriteByte(data, TIMEOUT);
 302              		.loc 1 90 0
 303 002c 1421     		movs	r1, #20
 304 002e 2000     		movs	r0, r4
 305 0030 FFF7FEFF 		bl	I2C_I2CMasterWriteByte
 306              	.LVL44:
  91:libraryCopied.c ****     I2C_I2CMasterSendStop(TIMEOUT);
 307              		.loc 1 91 0
 308 0034 1420     		movs	r0, #20
ARM GAS  C:\Users\shahnaz\AppData\Local\Temp\ccyHMBzP.s 			page 8


 309 0036 FFF7FEFF 		bl	I2C_I2CMasterSendStop
 310              	.LVL45:
 311              	.L15:
  92:libraryCopied.c **** }
 312              		.loc 1 92 0
 313              		@ sp needed
 314              	.LVL46:
 315 003a 70BD     		pop	{r4, r5, r6, pc}
 316              		.cfi_endproc
 317              	.LFE37:
 318              		.size	OxygenSensor_I2CWrite, .-OxygenSensor_I2CWrite
 319              		.global	__aeabi_f2d
 320              		.global	__aeabi_dcmplt
 321              		.global	__aeabi_dcmpgt
 322              		.global	__aeabi_fmul
 323              		.global	__aeabi_f2uiz
 324              		.global	__aeabi_fdiv
 325              		.section	.text.OxygenSensor_Calibrate,"ax",%progbits
 326              		.align	2
 327              		.global	OxygenSensor_Calibrate
 328              		.code	16
 329              		.thumb_func
 330              		.type	OxygenSensor_Calibrate, %function
 331              	OxygenSensor_Calibrate:
 332              	.LFB38:
  93:libraryCopied.c **** 
  94:libraryCopied.c **** /**
  95:libraryCopied.c ****  * Calibrate the oxygen sensor.
  96:libraryCopied.c ****  */
  97:libraryCopied.c **** void OxygenSensor_Calibrate(DFRobot_OxygenSensor* sensor, float vol, float mv) {
 333              		.loc 1 97 0
 334              		.cfi_startproc
 335              		@ args = 0, pretend = 0, frame = 8
 336              		@ frame_needed = 0, uses_anonymous_args = 0
 337              	.LVL47:
 338 0000 F0B5     		push	{r4, r5, r6, r7, lr}
 339              		.cfi_def_cfa_offset 20
 340              		.cfi_offset 4, -20
 341              		.cfi_offset 5, -16
 342              		.cfi_offset 6, -12
 343              		.cfi_offset 7, -8
 344              		.cfi_offset 14, -4
 345 0002 83B0     		sub	sp, sp, #12
 346              		.cfi_def_cfa_offset 32
 347 0004 0500     		movs	r5, r0
 348 0006 0191     		str	r1, [sp, #4]
 349 0008 141C     		adds	r4, r2, #0
  98:libraryCopied.c ****     uint8_t keyValue;
  99:libraryCopied.c **** 
 100:libraryCopied.c ****     if (mv < 0.000001 && mv > -0.000001) {
 350              		.loc 1 100 0
 351 000a 101C     		adds	r0, r2, #0
 352              	.LVL48:
 353 000c FFF7FEFF 		bl	__aeabi_f2d
 354              	.LVL49:
 355 0010 0600     		movs	r6, r0
 356 0012 0F00     		movs	r7, r1
ARM GAS  C:\Users\shahnaz\AppData\Local\Temp\ccyHMBzP.s 			page 9


 357 0014 144A     		ldr	r2, .L25
 358 0016 154B     		ldr	r3, .L25+4
 359 0018 FFF7FEFF 		bl	__aeabi_dcmplt
 360              	.LVL50:
 361 001c 0028     		cmp	r0, #0
 362 001e 13D0     		beq	.L19
 363              		.loc 1 100 0 is_stmt 0 discriminator 1
 364 0020 114A     		ldr	r2, .L25
 365 0022 134B     		ldr	r3, .L25+8
 366 0024 3000     		movs	r0, r6
 367 0026 3900     		movs	r1, r7
 368 0028 FFF7FEFF 		bl	__aeabi_dcmpgt
 369              	.LVL51:
 370 002c 0028     		cmp	r0, #0
 371 002e 0BD0     		beq	.L19
 101:libraryCopied.c ****         keyValue = vol * 10;
 372              		.loc 1 101 0 is_stmt 1
 373 0030 1049     		ldr	r1, .L25+12
 374 0032 0198     		ldr	r0, [sp, #4]
 375 0034 FFF7FEFF 		bl	__aeabi_fmul
 376              	.LVL52:
 377 0038 FFF7FEFF 		bl	__aeabi_f2uiz
 378              	.LVL53:
 379 003c C2B2     		uxtb	r2, r0
 380              	.LVL54:
 102:libraryCopied.c ****         OxygenSensor_I2CWrite(sensor, USER_SET_REGISTER, keyValue);
 381              		.loc 1 102 0
 382 003e 0821     		movs	r1, #8
 383 0040 2800     		movs	r0, r5
 384 0042 FFF7FEFF 		bl	OxygenSensor_I2CWrite
 385              	.LVL55:
 386 0046 0DE0     		b	.L18
 387              	.L19:
 103:libraryCopied.c ****     } else {
 104:libraryCopied.c ****         keyValue = (vol / mv) * 1000;
 388              		.loc 1 104 0
 389 0048 211C     		adds	r1, r4, #0
 390 004a 0198     		ldr	r0, [sp, #4]
 391 004c FFF7FEFF 		bl	__aeabi_fdiv
 392              	.LVL56:
 393 0050 0949     		ldr	r1, .L25+16
 394 0052 FFF7FEFF 		bl	__aeabi_fmul
 395              	.LVL57:
 396 0056 FFF7FEFF 		bl	__aeabi_f2uiz
 397              	.LVL58:
 398 005a C2B2     		uxtb	r2, r0
 399              	.LVL59:
 105:libraryCopied.c ****         OxygenSensor_I2CWrite(sensor, AUTUAL_SET_REGISTER, keyValue);
 400              		.loc 1 105 0
 401 005c 0921     		movs	r1, #9
 402 005e 2800     		movs	r0, r5
 403 0060 FFF7FEFF 		bl	OxygenSensor_I2CWrite
 404              	.LVL60:
 405              	.L18:
 106:libraryCopied.c ****     }
 107:libraryCopied.c **** }
 406              		.loc 1 107 0
ARM GAS  C:\Users\shahnaz\AppData\Local\Temp\ccyHMBzP.s 			page 10


 407 0064 03B0     		add	sp, sp, #12
 408              		@ sp needed
 409              	.LVL61:
 410              	.LVL62:
 411 0066 F0BD     		pop	{r4, r5, r6, r7, pc}
 412              	.L26:
 413              		.align	2
 414              	.L25:
 415 0068 8DEDB5A0 		.word	-1598689907
 416 006c F7C6B03E 		.word	1051772663
 417 0070 F7C6B0BE 		.word	-1095710985
 418 0074 00002041 		.word	1092616192
 419 0078 00007A44 		.word	1148846080
 420              		.cfi_endproc
 421              	.LFE38:
 422              		.size	OxygenSensor_Calibrate, .-OxygenSensor_Calibrate
 423              		.global	__aeabi_fadd
 424              		.global	__aeabi_ui2f
 425              		.section	.text.OxygenSensor_GetAverage,"ax",%progbits
 426              		.align	2
 427              		.global	OxygenSensor_GetAverage
 428              		.code	16
 429              		.thumb_func
 430              		.type	OxygenSensor_GetAverage, %function
 431              	OxygenSensor_GetAverage:
 432              	.LFB40:
 108:libraryCopied.c **** 
 109:libraryCopied.c **** /**
 110:libraryCopied.c ****  * Get the oxygen concentration from the sensor.
 111:libraryCopied.c ****  */
 112:libraryCopied.c **** float OxygenSensor_GetOxygenData(DFRobot_OxygenSensor* sensor, uint8_t collectNum) {
 113:libraryCopied.c ****     uint8 rxbuf[10] = {0};
 114:libraryCopied.c ****     uint8_t i = 0;
 115:libraryCopied.c ****     static uint8_t collected = 0;
 116:libraryCopied.c **** 
 117:libraryCopied.c ****     if (collectNum > COLLECT_MAX) collectNum = COLLECT_MAX;
 118:libraryCopied.c **** 
 119:libraryCopied.c ****     OxygenSensor_ReadFlash(sensor);
 120:libraryCopied.c **** 
 121:libraryCopied.c ****     for (i = collectNum - 1; i > 0; i--) {
 122:libraryCopied.c ****         sensor->oxygenData[i] = sensor->oxygenData[i - 1];
 123:libraryCopied.c ****     }
 124:libraryCopied.c ****     
 125:libraryCopied.c ****     uint32 err;
 126:libraryCopied.c ****     // Send OXYGEN_DATA_REGISTER command
 127:libraryCopied.c ****     I2C_I2CMasterClearStatus();
 128:libraryCopied.c ****     err = I2C_I2CMasterSendStart(sensor->_addr, I2C_I2C_WRITE_XFER_MODE, TIMEOUT);
 129:libraryCopied.c ****     if (err) {
 130:libraryCopied.c ****         I2C_I2CMasterSendStop(TIMEOUT);
 131:libraryCopied.c ****         char debugMsg[50];
 132:libraryCopied.c ****         sprintf(debugMsg, "Oxygen Data: I2C Send Start Error Code: 0x%08X\r\n", err);
 133:libraryCopied.c ****         UART_UartPutString(debugMsg);
 134:libraryCopied.c ****         return err;
 135:libraryCopied.c ****     }
 136:libraryCopied.c ****     I2C_I2CMasterWriteByte(OXYGEN_DATA_REGISTER, TIMEOUT);
 137:libraryCopied.c ****   
 138:libraryCopied.c ****     err = I2C_I2CMasterSendRestart(sensor->_addr, I2C_I2C_READ_XFER_MODE, TIMEOUT);
ARM GAS  C:\Users\shahnaz\AppData\Local\Temp\ccyHMBzP.s 			page 11


 139:libraryCopied.c ****     if (err) {
 140:libraryCopied.c ****         I2C_I2CMasterSendStop(TIMEOUT);
 141:libraryCopied.c ****         UART_UartPutString("Oxygen Data: I2CMasterSendRestart not working!\r\n");
 142:libraryCopied.c ****         return err;
 143:libraryCopied.c ****     }
 144:libraryCopied.c ****     
 145:libraryCopied.c ****     // Request 3 bytes of oxygen data
 146:libraryCopied.c ****     for (i = 0; i < 3; i++) {
 147:libraryCopied.c ****        I2C_I2CMasterReadByte((i < 2) ? I2C_I2C_ACK_DATA : I2C_I2C_NAK_DATA, &rxbuf[i], TIMEOUT);
 148:libraryCopied.c ****     }
 149:libraryCopied.c ****     
 150:libraryCopied.c ****     
 151:libraryCopied.c **** 
 152:libraryCopied.c ****     I2C_I2CMasterSendStop(TIMEOUT);
 153:libraryCopied.c **** 
 154:libraryCopied.c ****     sensor->oxygenData[0] = (sensor->_Key) * ((float)rxbuf[0] + ((float)rxbuf[1] / 10.0) + ((float)
 155:libraryCopied.c ****    
 156:libraryCopied.c ****     if (collected < collectNum) collected++;
 157:libraryCopied.c ****     return OxygenSensor_GetAverage(sensor->oxygenData, collected);
 158:libraryCopied.c **** }
 159:libraryCopied.c **** 
 160:libraryCopied.c **** /**
 161:libraryCopied.c ****  * Calculate the average of collected data points.
 162:libraryCopied.c ****  */
 163:libraryCopied.c **** float OxygenSensor_GetAverage(float data[], uint8_t len) {
 433              		.loc 1 163 0
 434              		.cfi_startproc
 435              		@ args = 0, pretend = 0, frame = 0
 436              		@ frame_needed = 0, uses_anonymous_args = 0
 437              	.LVL63:
 438 0000 F8B5     		push	{r3, r4, r5, r6, r7, lr}
 439              		.cfi_def_cfa_offset 24
 440              		.cfi_offset 3, -24
 441              		.cfi_offset 4, -20
 442              		.cfi_offset 5, -16
 443              		.cfi_offset 6, -12
 444              		.cfi_offset 7, -8
 445              		.cfi_offset 14, -4
 446 0002 0700     		movs	r7, r0
 447 0004 0E00     		movs	r6, r1
 448              	.LVL64:
 164:libraryCopied.c ****     uint8_t i = 0;
 165:libraryCopied.c ****     float sum = 0.0;
 449              		.loc 1 165 0
 450 0006 0025     		movs	r5, #0
 166:libraryCopied.c **** 
 167:libraryCopied.c ****     for (i = 0; i < len; i++) {
 451              		.loc 1 167 0
 452 0008 0024     		movs	r4, #0
 453 000a 07E0     		b	.L28
 454              	.LVL65:
 455              	.L29:
 168:libraryCopied.c ****         sum += data[i];
 456              		.loc 1 168 0 discriminator 3
 457 000c A300     		lsls	r3, r4, #2
 458 000e D959     		ldr	r1, [r3, r7]
 459 0010 281C     		adds	r0, r5, #0
ARM GAS  C:\Users\shahnaz\AppData\Local\Temp\ccyHMBzP.s 			page 12


 460 0012 FFF7FEFF 		bl	__aeabi_fadd
 461              	.LVL66:
 462 0016 051C     		adds	r5, r0, #0
 463              	.LVL67:
 167:libraryCopied.c ****         sum += data[i];
 464              		.loc 1 167 0 discriminator 3
 465 0018 0134     		adds	r4, r4, #1
 466              	.LVL68:
 467 001a E4B2     		uxtb	r4, r4
 468              	.LVL69:
 469              	.L28:
 167:libraryCopied.c ****         sum += data[i];
 470              		.loc 1 167 0 is_stmt 0 discriminator 1
 471 001c B442     		cmp	r4, r6
 472 001e F5D3     		bcc	.L29
 169:libraryCopied.c ****     }
 170:libraryCopied.c **** 
 171:libraryCopied.c ****     return sum / (float)len;
 473              		.loc 1 171 0 is_stmt 1
 474 0020 3000     		movs	r0, r6
 475 0022 FFF7FEFF 		bl	__aeabi_ui2f
 476              	.LVL70:
 477 0026 011C     		adds	r1, r0, #0
 478 0028 281C     		adds	r0, r5, #0
 479 002a FFF7FEFF 		bl	__aeabi_fdiv
 480              	.LVL71:
 172:libraryCopied.c **** }...
 481              		.loc 1 172 0
 482              		@ sp needed
 483              	.LVL72:
 484              	.LVL73:
 485              	.LVL74:
 486 002e F8BD     		pop	{r3, r4, r5, r6, r7, pc}
 487              		.cfi_endproc
 488              	.LFE40:
 489              		.size	OxygenSensor_GetAverage, .-OxygenSensor_GetAverage
 490              		.global	__aeabi_dadd
 491              		.global	__aeabi_dmul
 492              		.section	.text.OxygenSensor_GetOxygenData,"ax",%progbits
 493              		.align	2
 494              		.global	OxygenSensor_GetOxygenData
 495              		.code	16
 496              		.thumb_func
 497              		.type	OxygenSensor_GetOxygenData, %function
 498              	OxygenSensor_GetOxygenData:
 499              	.LFB39:
 112:libraryCopied.c **** float OxygenSensor_GetOxygenData(DFRobot_OxygenSensor* sensor, uint8_t collectNum) {
 500              		.loc 1 112 0
 501              		.cfi_startproc
 502              		@ args = 0, pretend = 0, frame = 80
 503              		@ frame_needed = 0, uses_anonymous_args = 0
 504              	.LVL75:
 505 0000 F0B5     		push	{r4, r5, r6, r7, lr}
 506              		.cfi_def_cfa_offset 20
 507              		.cfi_offset 4, -20
 508              		.cfi_offset 5, -16
 509              		.cfi_offset 6, -12
ARM GAS  C:\Users\shahnaz\AppData\Local\Temp\ccyHMBzP.s 			page 13


 510              		.cfi_offset 7, -8
 511              		.cfi_offset 14, -4
 512 0002 95B0     		sub	sp, sp, #84
 513              		.cfi_def_cfa_offset 104
 514 0004 0600     		movs	r6, r0
 515 0006 0F00     		movs	r7, r1
 113:libraryCopied.c ****     uint8 rxbuf[10] = {0};
 516              		.loc 1 113 0
 517 0008 0A22     		movs	r2, #10
 518 000a 0021     		movs	r1, #0
 519              	.LVL76:
 520 000c 11A8     		add	r0, sp, #68
 521              	.LVL77:
 522 000e FFF7FEFF 		bl	memset
 523              	.LVL78:
 117:libraryCopied.c ****     if (collectNum > COLLECT_MAX) collectNum = COLLECT_MAX;
 524              		.loc 1 117 0
 525 0012 0A2F     		cmp	r7, #10
 526 0014 00D9     		bls	.L31
 527 0016 0A27     		movs	r7, #10
 528              	.L31:
 529              	.LVL79:
 119:libraryCopied.c ****     OxygenSensor_ReadFlash(sensor);
 530              		.loc 1 119 0
 531 0018 3000     		movs	r0, r6
 532 001a FFF7FEFF 		bl	OxygenSensor_ReadFlash
 533              	.LVL80:
 121:libraryCopied.c ****     for (i = collectNum - 1; i > 0; i--) {
 534              		.loc 1 121 0
 535 001e 7C1E     		subs	r4, r7, #1
 536 0020 E4B2     		uxtb	r4, r4
 537              	.LVL81:
 538 0022 07E0     		b	.L32
 539              	.L33:
 122:libraryCopied.c ****         sensor->oxygenData[i] = sensor->oxygenData[i - 1];
 540              		.loc 1 122 0 discriminator 3
 541 0024 621E     		subs	r2, r4, #1
 542 0026 631C     		adds	r3, r4, #1
 543 0028 9B00     		lsls	r3, r3, #2
 544 002a 9B59     		ldr	r3, [r3, r6]
 545 002c 0234     		adds	r4, r4, #2
 546              	.LVL82:
 547 002e A400     		lsls	r4, r4, #2
 548 0030 A351     		str	r3, [r4, r6]
 121:libraryCopied.c ****     for (i = collectNum - 1; i > 0; i--) {
 549              		.loc 1 121 0 discriminator 3
 550 0032 D4B2     		uxtb	r4, r2
 551              	.LVL83:
 552              	.L32:
 121:libraryCopied.c ****     for (i = collectNum - 1; i > 0; i--) {
 553              		.loc 1 121 0 is_stmt 0 discriminator 1
 554 0034 002C     		cmp	r4, #0
 555 0036 F5D1     		bne	.L33
 127:libraryCopied.c ****     I2C_I2CMasterClearStatus();
 556              		.loc 1 127 0 is_stmt 1
 557 0038 FFF7FEFF 		bl	I2C_I2CMasterClearStatus
 558              	.LVL84:
ARM GAS  C:\Users\shahnaz\AppData\Local\Temp\ccyHMBzP.s 			page 14


 128:libraryCopied.c ****     err = I2C_I2CMasterSendStart(sensor->_addr, I2C_I2C_WRITE_XFER_MODE, TIMEOUT);
 559              		.loc 1 128 0
 560 003c 3078     		ldrb	r0, [r6]
 561 003e 1422     		movs	r2, #20
 562 0040 0021     		movs	r1, #0
 563 0042 FFF7FEFF 		bl	I2C_I2CMasterSendStart
 564              	.LVL85:
 565 0046 051E     		subs	r5, r0, #0
 566              	.LVL86:
 129:libraryCopied.c ****     if (err) {
 567              		.loc 1 129 0
 568 0048 0ED0     		beq	.L34
 569              	.LBB5:
 130:libraryCopied.c ****         I2C_I2CMasterSendStop(TIMEOUT);
 570              		.loc 1 130 0
 571 004a 1420     		movs	r0, #20
 572              	.LVL87:
 573 004c FFF7FEFF 		bl	I2C_I2CMasterSendStop
 574              	.LVL88:
 132:libraryCopied.c ****         sprintf(debugMsg, "Oxygen Data: I2C Send Start Error Code: 0x%08X\r\n", err);
 575              		.loc 1 132 0
 576 0050 2A00     		movs	r2, r5
 577 0052 3A49     		ldr	r1, .L40
 578 0054 04A8     		add	r0, sp, #16
 579 0056 FFF7FEFF 		bl	sprintf
 580              	.LVL89:
 133:libraryCopied.c ****         UART_UartPutString(debugMsg);
 581              		.loc 1 133 0
 582 005a 04A8     		add	r0, sp, #16
 583 005c FFF7FEFF 		bl	UART_UartPutString
 584              	.LVL90:
 134:libraryCopied.c ****         return err;
 585              		.loc 1 134 0
 586 0060 2800     		movs	r0, r5
 587 0062 FFF7FEFF 		bl	__aeabi_ui2f
 588              	.LVL91:
 589 0066 66E0     		b	.L35
 590              	.LVL92:
 591              	.L34:
 592              	.LBE5:
 136:libraryCopied.c ****     I2C_I2CMasterWriteByte(OXYGEN_DATA_REGISTER, TIMEOUT);
 593              		.loc 1 136 0
 594 0068 1421     		movs	r1, #20
 595 006a 0320     		movs	r0, #3
 596              	.LVL93:
 597 006c FFF7FEFF 		bl	I2C_I2CMasterWriteByte
 598              	.LVL94:
 138:libraryCopied.c ****     err = I2C_I2CMasterSendRestart(sensor->_addr, I2C_I2C_READ_XFER_MODE, TIMEOUT);
 599              		.loc 1 138 0
 600 0070 3078     		ldrb	r0, [r6]
 601 0072 1422     		movs	r2, #20
 602 0074 0121     		movs	r1, #1
 603 0076 FFF7FEFF 		bl	I2C_I2CMasterSendRestart
 604              	.LVL95:
 605 007a 051E     		subs	r5, r0, #0
 606              	.LVL96:
 139:libraryCopied.c ****     if (err) {
ARM GAS  C:\Users\shahnaz\AppData\Local\Temp\ccyHMBzP.s 			page 15


 607              		.loc 1 139 0
 608 007c 14D0     		beq	.L36
 140:libraryCopied.c ****         I2C_I2CMasterSendStop(TIMEOUT);
 609              		.loc 1 140 0
 610 007e 1420     		movs	r0, #20
 611              	.LVL97:
 612 0080 FFF7FEFF 		bl	I2C_I2CMasterSendStop
 613              	.LVL98:
 141:libraryCopied.c ****         UART_UartPutString("Oxygen Data: I2CMasterSendRestart not working!\r\n");
 614              		.loc 1 141 0
 615 0084 2E48     		ldr	r0, .L40+4
 616 0086 FFF7FEFF 		bl	UART_UartPutString
 617              	.LVL99:
 142:libraryCopied.c ****         return err;
 618              		.loc 1 142 0
 619 008a 2800     		movs	r0, r5
 620 008c FFF7FEFF 		bl	__aeabi_ui2f
 621              	.LVL100:
 622 0090 51E0     		b	.L35
 623              	.L37:
 147:libraryCopied.c ****        I2C_I2CMasterReadByte((i < 2) ? I2C_I2C_ACK_DATA : I2C_I2C_NAK_DATA, &rxbuf[i], TIMEOUT);
 624              		.loc 1 147 0 discriminator 3
 625 0092 0120     		movs	r0, #1
 626 0094 A042     		cmp	r0, r4
 627 0096 8041     		sbcs	r0, r0, r0
 628 0098 4042     		rsbs	r0, r0, #0
 629 009a 11AB     		add	r3, sp, #68
 630 009c 1919     		adds	r1, r3, r4
 631 009e 1422     		movs	r2, #20
 632 00a0 FFF7FEFF 		bl	I2C_I2CMasterReadByte
 633              	.LVL101:
 146:libraryCopied.c ****     for (i = 0; i < 3; i++) {
 634              		.loc 1 146 0 discriminator 3
 635 00a4 0134     		adds	r4, r4, #1
 636              	.LVL102:
 637 00a6 E4B2     		uxtb	r4, r4
 638              	.LVL103:
 639              	.L36:
 146:libraryCopied.c ****     for (i = 0; i < 3; i++) {
 640              		.loc 1 146 0 is_stmt 0 discriminator 1
 641 00a8 022C     		cmp	r4, #2
 642 00aa F2D9     		bls	.L37
 152:libraryCopied.c ****     I2C_I2CMasterSendStop(TIMEOUT);
 643              		.loc 1 152 0 is_stmt 1
 644 00ac 1420     		movs	r0, #20
 645 00ae FFF7FEFF 		bl	I2C_I2CMasterSendStop
 646              	.LVL104:
 154:libraryCopied.c ****     sensor->oxygenData[0] = (sensor->_Key) * ((float)rxbuf[0] + ((float)rxbuf[1] / 10.0) + ((float)
 647              		.loc 1 154 0
 648 00b2 7568     		ldr	r5, [r6, #4]
 649              	.LVL105:
 650 00b4 11AC     		add	r4, sp, #68
 651              	.LVL106:
 652 00b6 2078     		ldrb	r0, [r4]
 653 00b8 FFF7FEFF 		bl	__aeabi_ui2f
 654              	.LVL107:
 655 00bc 0090     		str	r0, [sp]
ARM GAS  C:\Users\shahnaz\AppData\Local\Temp\ccyHMBzP.s 			page 16


 656 00be 6078     		ldrb	r0, [r4, #1]
 657 00c0 FFF7FEFF 		bl	__aeabi_ui2f
 658              	.LVL108:
 659 00c4 FFF7FEFF 		bl	__aeabi_f2d
 660              	.LVL109:
 661 00c8 0022     		movs	r2, #0
 662 00ca 1E4B     		ldr	r3, .L40+8
 663 00cc FFF7FEFF 		bl	__aeabi_ddiv
 664              	.LVL110:
 665 00d0 0290     		str	r0, [sp, #8]
 666 00d2 0391     		str	r1, [sp, #12]
 667 00d4 0098     		ldr	r0, [sp]
 668 00d6 FFF7FEFF 		bl	__aeabi_f2d
 669              	.LVL111:
 670 00da 029A     		ldr	r2, [sp, #8]
 671 00dc 039B     		ldr	r3, [sp, #12]
 672 00de FFF7FEFF 		bl	__aeabi_dadd
 673              	.LVL112:
 674 00e2 0090     		str	r0, [sp]
 675 00e4 0191     		str	r1, [sp, #4]
 676 00e6 A078     		ldrb	r0, [r4, #2]
 677 00e8 FFF7FEFF 		bl	__aeabi_ui2f
 678              	.LVL113:
 679 00ec FFF7FEFF 		bl	__aeabi_f2d
 680              	.LVL114:
 681 00f0 0022     		movs	r2, #0
 682 00f2 154B     		ldr	r3, .L40+12
 683 00f4 FFF7FEFF 		bl	__aeabi_ddiv
 684              	.LVL115:
 685 00f8 0200     		movs	r2, r0
 686 00fa 0B00     		movs	r3, r1
 687 00fc 0098     		ldr	r0, [sp]
 688 00fe 0199     		ldr	r1, [sp, #4]
 689 0100 FFF7FEFF 		bl	__aeabi_dadd
 690              	.LVL116:
 691 0104 0090     		str	r0, [sp]
 692 0106 0191     		str	r1, [sp, #4]
 693 0108 281C     		adds	r0, r5, #0
 694 010a FFF7FEFF 		bl	__aeabi_f2d
 695              	.LVL117:
 696 010e 009A     		ldr	r2, [sp]
 697 0110 019B     		ldr	r3, [sp, #4]
 698 0112 FFF7FEFF 		bl	__aeabi_dmul
 699              	.LVL118:
 700 0116 FFF7FEFF 		bl	__aeabi_d2f
 701              	.LVL119:
 702 011a B060     		str	r0, [r6, #8]
 156:libraryCopied.c ****     if (collected < collectNum) collected++;
 703              		.loc 1 156 0
 704 011c 0B4B     		ldr	r3, .L40+16
 705 011e 1B78     		ldrb	r3, [r3]
 706 0120 9F42     		cmp	r7, r3
 707 0122 02D9     		bls	.L38
 156:libraryCopied.c ****     if (collected < collectNum) collected++;
 708              		.loc 1 156 0 is_stmt 0 discriminator 1
 709 0124 0133     		adds	r3, r3, #1
 710 0126 094A     		ldr	r2, .L40+16
ARM GAS  C:\Users\shahnaz\AppData\Local\Temp\ccyHMBzP.s 			page 17


 711 0128 1370     		strb	r3, [r2]
 712              	.L38:
 157:libraryCopied.c ****     return OxygenSensor_GetAverage(sensor->oxygenData, collected);
 713              		.loc 1 157 0 is_stmt 1
 714 012a 3000     		movs	r0, r6
 715 012c 0830     		adds	r0, r0, #8
 716 012e 074B     		ldr	r3, .L40+16
 717 0130 1978     		ldrb	r1, [r3]
 718 0132 FFF7FEFF 		bl	OxygenSensor_GetAverage
 719              	.LVL120:
 720              	.L35:
 158:libraryCopied.c **** }
 721              		.loc 1 158 0 discriminator 1
 722 0136 15B0     		add	sp, sp, #84
 723              		@ sp needed
 724              	.LVL121:
 725              	.LVL122:
 726 0138 F0BD     		pop	{r4, r5, r6, r7, pc}
 727              	.L41:
 728 013a C046     		.align	2
 729              	.L40:
 730 013c 9C000000 		.word	.LC6
 731 0140 D0000000 		.word	.LC8
 732 0144 00002440 		.word	1076101120
 733 0148 00005940 		.word	1079574528
 734 014c 00000000 		.word	.LANCHOR0
 735              		.cfi_endproc
 736              	.LFE39:
 737              		.size	OxygenSensor_GetOxygenData, .-OxygenSensor_GetOxygenData
 738              		.section	.rodata.str1.4,"aMS",%progbits,1
 739              		.align	2
 740              	.LC0:
 741 0000 4F787967 		.ascii	"Oxygen Begin: I2C Send Start Error Code: 0x%08X\015"
 741      656E2042 
 741      6567696E 
 741      3A204932 
 741      43205365 
 742 0030 0A00     		.ascii	"\012\000"
 743 0032 0000     		.space	2
 744              	.LC2:
 745 0034 4F787967 		.ascii	"Oxygen Flash: I2C Send Start Error Code: 0x%08X\015"
 745      656E2046 
 745      6C617368 
 745      3A204932 
 745      43205365 
 746 0064 0A00     		.ascii	"\012\000"
 747 0066 0000     		.space	2
 748              	.LC4:
 749 0068 4F787967 		.ascii	"Oxygen Flash: I2C Send Restart Error Code: 0x%08X\015"
 749      656E2046 
 749      6C617368 
 749      3A204932 
 749      43205365 
 750 009a 0A00     		.ascii	"\012\000"
 751              	.LC6:
 752 009c 4F787967 		.ascii	"Oxygen Data: I2C Send Start Error Code: 0x%08X\015\012"
 752      656E2044 
ARM GAS  C:\Users\shahnaz\AppData\Local\Temp\ccyHMBzP.s 			page 18


 752      6174613A 
 752      20493243 
 752      2053656E 
 753 00cc 00       		.ascii	"\000"
 754 00cd 000000   		.space	3
 755              	.LC8:
 756 00d0 4F787967 		.ascii	"Oxygen Data: I2CMasterSendRestart not working!\015\012"
 756      656E2044 
 756      6174613A 
 756      20493243 
 756      4D617374 
 757 0100 00       		.ascii	"\000"
 758              		.bss
 759              		.set	.LANCHOR0,. + 0
 760              		.type	collected.8261, %object
 761              		.size	collected.8261, 1
 762              	collected.8261:
 763 0000 00       		.space	1
 764              		.text
 765              	.Letext0:
 766              		.file 2 "c:\\users\\shahnaz\\desktop\\psoc creator\\4.4\\psoc creator\\import\\gnu\\arm\\5.4.1\\ar
 767              		.file 3 "c:\\users\\shahnaz\\desktop\\psoc creator\\4.4\\psoc creator\\import\\gnu\\arm\\5.4.1\\ar
 768              		.file 4 "Generated_Source\\PSoC4/cytypes.h"
 769              		.file 5 "libraryCopied.h"
 770              		.file 6 "c:\\users\\shahnaz\\desktop\\psoc creator\\4.4\\psoc creator\\import\\gnu\\arm\\5.4.1\\ar
 771              		.file 7 "Generated_Source\\PSoC4/UART_SPI_UART.h"
 772              		.file 8 "Generated_Source\\PSoC4/I2C_I2C.h"